; Function Attrs: nounwind uwtable
define range(i32 -1, 1) i32 @Ssw_RarSimulateGia(ptr noundef %0, ptr noundef %1) local_unnamed_addr #2 {
  %3 = getelementptr inbounds nuw i8, ptr %1, i64 68
  %4 = load i32, ptr %3, align 4, !tbaa !158
  %.not = icmp eq i32 %4, 0
  br i1 %.not, label %13, label %5

5:                                                ; preds = %2
  %6 = getelementptr i8, ptr %0, i64 16
  %.val = load i32, ptr %6, align 8, !tbaa !159
  %7 = tail call ptr @Ssw_RarRandomPermFlop(i32 noundef %.val, i32 noundef 10)
  %8 = tail call ptr @Gia_ManDupPermFlopGap(ptr noundef %0, ptr noundef %7) #20
  %9 = getelementptr inbounds nuw i8, ptr %7, i64 8
  %10 = load ptr, ptr %9, align 8, !tbaa !47
  %.not.i = icmp eq ptr %10, null
  br i1 %.not.i, label %Vec_IntFree.exit, label %11

11:                                               ; preds = %5
  tail call void @free(ptr noundef nonnull %10) #20
  br label %Vec_IntFree.exit

Vec_IntFree.exit:                                 ; preds = %5, %11
  tail call void @free(ptr noundef nonnull %7) #20
  %12 = tail call ptr @Gia_ManToAigSimple(ptr noundef %8) #20
  tail call void @Gia_ManStop(ptr noundef %8) #20
  br label %15

13:                                               ; preds = %2
  %14 = tail call ptr @Gia_ManToAigSimple(ptr noundef %0) #20
  br label %15

15:                                               ; preds = %13, %Vec_IntFree.exit
  %.0 = phi ptr [ %12, %Vec_IntFree.exit ], [ %14, %13 ]
  %16 = tail call i32 @Ssw_RarSimulate(ptr noundef %.0, ptr noundef nonnull %1)
  %17 = getelementptr inbounds nuw i8, ptr %0, i64 376
  %18 = load ptr, ptr %17, align 8, !tbaa !172
  tail call void @Abc_CexFree(ptr noundef %18) #20
  %19 = getelementptr inbounds nuw i8, ptr %.0, i64 408
  %20 = load ptr, ptr %19, align 8, !tbaa !122
  store ptr %20, ptr %17, align 8, !tbaa !172
  store ptr null, ptr %19, align 8, !tbaa !122
  tail call void @Aig_ManStop(ptr noundef %.0) #20
  ret i32 %16
}